; Function Attrs: mustprogress uwtable
define void @text_window_destroy(ptr noundef readonly %0) local_unnamed_addr #2 {
  %.not = icmp eq ptr %0, null
  br i1 %.not, label %5, label %2

2:                                                ; preds = %1
  %3 = load ptr, ptr %0, align 8
  %4 = tail call noundef zeroext i1 @_ZN7QWidget5closeEv(ptr noundef nonnull align 8 dereferenceable(40) %3)
  br label %5

5:                                                ; preds = %2, %1
  ret void
}